target datalayout = "e-m:e-p270:32:32-p271:32:32-p272:64:64-i64:64-i128:128-f80:128-n8:16:32:64-S128"
target triple = "x86_64-pc-linux-gnu"

%struct.avifIO = type { ptr, ptr, ptr, i64, i32, ptr }
%struct.avifIOFileReader = type { %struct.avifIO, %struct.avifRWData, ptr }
%struct.avifRWData = type { ptr, i64 }

; Function Attrs: nounwind uwtable
define internal void @avifIOFileReaderDestroy(ptr noundef %0) #0 {
  %2 = alloca ptr, align 8
  %3 = alloca ptr, align 8
  store ptr %0, ptr %2, align 8
  %4 = load ptr, ptr %2, align 8
  store ptr %4, ptr %3, align 8
  %5 = load ptr, ptr %3, align 8
  %6 = getelementptr inbounds nuw %struct.avifIOFileReader, ptr %5, i32 0, i32 2
  %7 = load ptr, ptr %6, align 8
  %8 = call i32 @fclose(ptr noundef %7)
  %9 = load ptr, ptr %3, align 8
  %10 = getelementptr inbounds nuw %struct.avifIOFileReader, ptr %9, i32 0, i32 1
  call void @avifRWDataFree(ptr noundef %10)
  %11 = load ptr, ptr %2, align 8
  call void @avifFree(ptr noundef %11)
  ret void
}