; Function Attrs: nounwind uwtable
define internal void @avifIOFileReaderDestroy(ptr noundef %0) #0 {
  %2 = getelementptr inbounds nuw i8, ptr %0, i64 64
  %3 = load ptr, ptr %2, align 8
  %4 = tail call i32 @fclose(ptr noundef %3)
  %5 = getelementptr inbounds nuw i8, ptr %0, i64 48
  tail call void @avifRWDataFree(ptr noundef nonnull %5) #7
  tail call void @avifFree(ptr noundef %0) #7
  ret void
}